; Function Attrs: mustprogress uwtable
define noundef nonnull align 8 dereferenceable(8) ptr @_ZN2cv4gapi4s11nrsERNS1_8IIStreamERNS0_3wip4draw4PolyE(ptr noundef nonnull align 8 dereferenceable(8) %0, ptr noundef nonnull align 8 dereferenceable(68) %1) local_unnamed_addr #3 personality ptr @__gxx_personality_v0 {
  %3 = alloca i32, align 4
  %4 = getelementptr inbounds nuw i8, ptr %1, i64 24
  %5 = load ptr, ptr %0, align 8, !tbaa !8
  %6 = getelementptr inbounds nuw i8, ptr %5, i64 80
  %7 = load ptr, ptr %6, align 8
  %8 = tail call noundef nonnull align 8 dereferenceable(8) ptr %7(ptr noundef nonnull align 8 dereferenceable(8) %0, ptr noundef nonnull align 8 dereferenceable(32) %4)
  %9 = getelementptr inbounds nuw i8, ptr %1, i64 32
  %10 = load ptr, ptr %8, align 8, !tbaa !8
  %11 = getelementptr inbounds nuw i8, ptr %10, i64 80
  %12 = load ptr, ptr %11, align 8
  %13 = tail call noundef nonnull align 8 dereferenceable(8) ptr %12(ptr noundef nonnull align 8 dereferenceable(8) %8, ptr noundef nonnull align 8 dereferenceable(8) %9)
  %14 = getelementptr inbounds nuw i8, ptr %1, i64 40
  %15 = load ptr, ptr %13, align 8, !tbaa !8
  %16 = getelementptr inbounds nuw i8, ptr %15, i64 80
  %17 = load ptr, ptr %16, align 8
  %18 = tail call noundef nonnull align 8 dereferenceable(8) ptr %17(ptr noundef nonnull align 8 dereferenceable(8) %13, ptr noundef nonnull align 8 dereferenceable(8) %14)
  %19 = getelementptr inbounds nuw i8, ptr %1, i64 48
  %20 = load ptr, ptr %18, align 8, !tbaa !8
  %21 = getelementptr inbounds nuw i8, ptr %20, i64 80
  %22 = load ptr, ptr %21, align 8
  %23 = tail call noundef nonnull align 8 dereferenceable(8) ptr %22(ptr noundef nonnull align 8 dereferenceable(8) %18, ptr noundef nonnull align 8 dereferenceable(8) %19)
  %24 = getelementptr inbounds nuw i8, ptr %1, i64 60
  %25 = load ptr, ptr %23, align 8, !tbaa !8
  %26 = getelementptr inbounds nuw i8, ptr %25, i64 64
  %27 = load ptr, ptr %26, align 8
  %28 = tail call noundef nonnull align 8 dereferenceable(8) ptr %27(ptr noundef nonnull align 8 dereferenceable(8) %23, ptr noundef nonnull align 4 dereferenceable(4) %24)
  call void @llvm.lifetime.start.p0(i64 4, ptr nonnull %3) #31
  store i32 0, ptr %3, align 4, !tbaa !38
  %29 = load ptr, ptr %28, align 8, !tbaa !8
  %30 = getelementptr inbounds nuw i8, ptr %29, i64 88
  %31 = load ptr, ptr %30, align 8
  %32 = call noundef nonnull align 8 dereferenceable(8) ptr %31(ptr noundef nonnull align 8 dereferenceable(8) %28, ptr noundef nonnull align 4 dereferenceable(4) %3)
  %33 = load i32, ptr %3, align 4, !tbaa !38
  %34 = icmp eq i32 %33, 0
  br i1 %34, label %35, label %40

35:                                               ; preds = %2
  %36 = load ptr, ptr %1, align 8, !tbaa !108
  %37 = getelementptr inbounds nuw i8, ptr %1, i64 8
  %38 = load ptr, ptr %37, align 8, !tbaa !107
  %.not.i.i.i = icmp eq ptr %38, %36
  br i1 %.not.i.i.i, label %_ZN2cv4gapi4s11nrsINS_6Point_IiEEEERNS1_8IIStreamES6_RSt6vectorIT_SaIS8_EE.exit, label %39

39:                                               ; preds = %35
  store ptr %36, ptr %37, align 8, !tbaa !107
  br label %_ZN2cv4gapi4s11nrsINS_6Point_IiEEEERNS1_8IIStreamES6_RSt6vectorIT_SaIS8_EE.exit

40:                                               ; preds = %2
  %41 = zext i32 %33 to i64
  call void @_ZNSt6vectorIN2cv6Point_IiEESaIS2_EE6resizeEm(ptr noundef nonnull align 8 dereferenceable(24) %1, i64 noundef %41)
  %42 = load i32, ptr %3, align 4, !tbaa !38
  %.not.i = icmp eq i32 %42, 0
  br i1 %.not.i, label %_ZN2cv4gapi4s11nrsINS_6Point_IiEEEERNS1_8IIStreamES6_RSt6vectorIT_SaIS8_EE.exit, label %.lr.ph.i

.lr.ph.i:                                         ; preds = %40, %.lr.ph.i
  %.09.i = phi i64 [ %54, %.lr.ph.i ], [ 0, %40 ]
  %43 = load ptr, ptr %1, align 8, !tbaa !108
  %44 = getelementptr inbounds nuw %"class.cv::Point_", ptr %43, i64 %.09.i
  %45 = load ptr, ptr %28, align 8, !tbaa !8
  %46 = getelementptr inbounds nuw i8, ptr %45, i64 64
  %47 = load ptr, ptr %46, align 8
  %48 = call noundef nonnull align 8 dereferenceable(8) ptr %47(ptr noundef nonnull align 8 dereferenceable(8) %28, ptr noundef nonnull align 4 dereferenceable(8) %44)
  %49 = getelementptr inbounds nuw i8, ptr %44, i64 4
  %50 = load ptr, ptr %48, align 8, !tbaa !8
  %51 = getelementptr inbounds nuw i8, ptr %50, i64 64
  %52 = load ptr, ptr %51, align 8
  %53 = call noundef nonnull align 8 dereferenceable(8) ptr %52(ptr noundef nonnull align 8 dereferenceable(8) %48, ptr noundef nonnull align 4 dereferenceable(4) %49)
  %54 = add nuw nsw i64 %.09.i, 1
  %55 = load i32, ptr %3, align 4, !tbaa !38
  %56 = zext i32 %55 to i64
  %57 = icmp samesign ult i64 %54, %56
  br i1 %57, label %.lr.ph.i, label %_ZN2cv4gapi4s11nrsINS_6Point_IiEEEERNS1_8IIStreamES6_RSt6vectorIT_SaIS8_EE.exit, !llvm.loop !112

_ZN2cv4gapi4s11nrsINS_6Point_IiEEEERNS1_8IIStreamES6_RSt6vectorIT_SaIS8_EE.exit: ; preds = %.lr.ph.i, %35, %39, %40
  call void @llvm.lifetime.end.p0(i64 4, ptr nonnull %3) #31
  %58 = getelementptr inbounds nuw i8, ptr %1, i64 64
  %59 = load ptr, ptr %28, align 8, !tbaa !8
  %60 = getelementptr inbounds nuw i8, ptr %59, i64 64
  %61 = load ptr, ptr %60, align 8
  %62 = call noundef nonnull align 8 dereferenceable(8) ptr %61(ptr noundef nonnull align 8 dereferenceable(8) %28, ptr noundef nonnull align 4 dereferenceable(4) %58)
  %63 = getelementptr inbounds nuw i8, ptr %1, i64 56
  %64 = load ptr, ptr %62, align 8, !tbaa !8
  %65 = getelementptr inbounds nuw i8, ptr %64, i64 64
  %66 = load ptr, ptr %65, align 8
  %67 = call noundef nonnull align 8 dereferenceable(8) ptr %66(ptr noundef nonnull align 8 dereferenceable(8) %62, ptr noundef nonnull align 4 dereferenceable(4) %63)
  ret ptr %67
}